; Function Attrs: nounwind uwtable
define noalias nonnull ptr @l_Lean_IR_EmitC_emitInc___lambda__1___boxed(ptr noundef %0, ptr noundef %1, ptr noundef %2) #0 {
  %4 = load ptr, ptr @l_Lean_IR_EmitC_emitInc___lambda__1___closed__1, align 8, !tbaa !4
  %5 = tail call ptr @lean_string_append(ptr noundef %2, ptr noundef %4) #5
  %6 = load ptr, ptr @l_Lean_IR_EmitC_emitLn___rarg___closed__1, align 8, !tbaa !4
  %7 = tail call ptr @lean_string_append(ptr noundef %5, ptr noundef %6) #5
  tail call void @lean_inc_heartbeat() #5
  %8 = tail call noalias ptr @mi_malloc_small(i64 noundef 24) #5
  %9 = icmp eq ptr %8, null
  br i1 %9, label %10, label %l_Lean_IR_EmitC_emitInc___lambda__1.exit

10:                                               ; preds = %3
  tail call void @lean_internal_panic_out_of_memory() #6
  unreachable

l_Lean_IR_EmitC_emitInc___lambda__1.exit:         ; preds = %3
  %11 = getelementptr inbounds nuw i8, ptr %8, i64 4
  store i32 1, ptr %8, align 4, !tbaa !8
  store i32 131096, ptr %11, align 4
  %12 = getelementptr inbounds nuw i8, ptr %8, i64 8
  store ptr inttoptr (i64 1 to ptr), ptr %12, align 8, !tbaa !4
  %13 = getelementptr inbounds nuw i8, ptr %8, i64 16
  store ptr %7, ptr %13, align 8, !tbaa !4
  %14 = ptrtoint ptr %1 to i64
  %15 = and i64 %14, 1
  %.not = icmp eq i64 %15, 0
  br i1 %.not, label %16, label %lean_dec.exit6

16:                                               ; preds = %l_Lean_IR_EmitC_emitInc___lambda__1.exit
  %17 = load i32, ptr %1, align 4, !tbaa !8
  %18 = icmp sgt i32 %17, 1
  br i1 %18, label %19, label %21, !prof !11

19:                                               ; preds = %16
  %20 = add nsw i32 %17, -1
  store i32 %20, ptr %1, align 4, !tbaa !8
  br label %lean_dec.exit6

21:                                               ; preds = %16
  %.not.i = icmp eq i32 %17, 0
  br i1 %.not.i, label %lean_dec.exit6, label %22

22:                                               ; preds = %21
  tail call void @lean_dec_ref_cold(ptr noundef nonnull %1) #5
  br label %lean_dec.exit6

lean_dec.exit6:                                   ; preds = %22, %21, %19, %l_Lean_IR_EmitC_emitInc___lambda__1.exit
  %23 = ptrtoint ptr %0 to i64
  %24 = and i64 %23, 1
  %.not9 = icmp eq i64 %24, 0
  br i1 %.not9, label %25, label %lean_dec.exit

25:                                               ; preds = %lean_dec.exit6
  %26 = load i32, ptr %0, align 4, !tbaa !8
  %27 = icmp sgt i32 %26, 1
  br i1 %27, label %28, label %30, !prof !11

28:                                               ; preds = %25
  %29 = add nsw i32 %26, -1
  store i32 %29, ptr %0, align 4, !tbaa !8
  br label %lean_dec.exit

30:                                               ; preds = %25
  %.not.i7 = icmp eq i32 %26, 0
  br i1 %.not.i7, label %lean_dec.exit, label %31

31:                                               ; preds = %30
  tail call void @lean_dec_ref_cold(ptr noundef nonnull %0) #5
  br label %lean_dec.exit

lean_dec.exit:                                    ; preds = %31, %30, %28, %lean_dec.exit6
  ret ptr %8
}